; Function Attrs: inlinehint nounwind uwtable
define internal fastcc i32 @get_ftp_result(ptr noundef nonnull %0, ptr noundef nonnull initializes((0, 1)) %1) unnamed_addr #4 {
  store i8 0, ptr %1, align 1, !tbaa !17
  %3 = getelementptr inbounds nuw i8, ptr %1, i64 3
  %4 = tail call ptr @_php_stream_get_line(ptr noundef nonnull %0, ptr noundef nonnull %1, i64 noundef 511, ptr noundef null) #15
  %.not14 = icmp eq ptr %4, null
  br i1 %.not14, label %.critedge, label %.lr.ph

.lr.ph:                                           ; preds = %2
  %5 = tail call ptr @__ctype_b_loc() #17
  %6 = getelementptr inbounds nuw i8, ptr %1, i64 1
  %7 = getelementptr inbounds nuw i8, ptr %1, i64 2
  br label %8

8:                                                ; preds = %.lr.ph, %.backedge
  %9 = load ptr, ptr %5, align 8, !tbaa !18
  %10 = load i8, ptr %1, align 1, !tbaa !17
  %11 = sext i8 %10 to i64
  %12 = getelementptr inbounds i16, ptr %9, i64 %11
  %13 = load i16, ptr %12, align 2, !tbaa !20
  %14 = and i16 %13, 2048
  %.not8 = icmp eq i16 %14, 0
  br i1 %.not8, label %.backedge, label %15

15:                                               ; preds = %8
  %16 = load i8, ptr %6, align 1, !tbaa !17
  %17 = sext i8 %16 to i64
  %18 = getelementptr inbounds i16, ptr %9, i64 %17
  %19 = load i16, ptr %18, align 2, !tbaa !20
  %20 = and i16 %19, 2048
  %.not9 = icmp eq i16 %20, 0
  br i1 %.not9, label %.backedge, label %21

21:                                               ; preds = %15
  %22 = load i8, ptr %7, align 1, !tbaa !17
  %23 = sext i8 %22 to i64
  %24 = getelementptr inbounds i16, ptr %9, i64 %23
  %25 = load i16, ptr %24, align 2, !tbaa !20
  %26 = and i16 %25, 2048
  %.not10 = icmp eq i16 %26, 0
  br i1 %.not10, label %.backedge, label %27

27:                                               ; preds = %21
  %28 = load i8, ptr %3, align 1, !tbaa !17
  %.not13 = icmp eq i8 %28, 32
  br i1 %.not13, label %.critedge, label %.backedge

.backedge:                                        ; preds = %21, %15, %8, %27
  %29 = tail call ptr @_php_stream_get_line(ptr noundef nonnull %0, ptr noundef nonnull %1, i64 noundef 511, ptr noundef null) #15
  %.not = icmp eq ptr %29, null
  br i1 %.not, label %.critedge, label %8

.critedge:                                        ; preds = %27, %.backedge, %2
  %30 = tail call i64 @strtol(ptr noundef nonnull captures(none) %1, ptr noundef null, i32 noundef 10) #15
  %31 = trunc i64 %30 to i32
  ret i32 %31
}